Certificate:
    Data:
        Version: 3 (0x2)
        Serial Number: 3767 (0xeb7)
        Signature Algorithm: md5WithRSAEncryption
        Issuer: C=RU, O=Yandex, OU=Passport, CN=Passport Issuing CA
        Validity
            Not Before: Feb 16 19:11:56 2011 GMT
            Not After : Mar 18 19:11:56 2011 GMT
        Subject: C=RU, ST=Moscow, OU=soap_direct_yandex, CN=51708096@passport.yandex.ru/emailAddress=am-borovikov@yandex.ru
        Subject Public Key Info:
            Public Key Algorithm: rsaEncryption
            RSA Public Key: (1024 bit)
                Modulus (1024 bit):
                    00:af:42:81:27:17:25:f9:87:cc:f6:a3:31:a4:8f:
                    de:be:83:32:51:b1:22:14:d3:ab:69:12:e0:13:8d:
                    8b:3a:ca:d2:cf:e0:2f:9d:d2:49:ab:91:1d:1f:1d:
                    02:bd:65:40:a4:0b:7a:77:08:b2:05:29:fe:52:73:
                    93:42:df:04:24:c4:6f:4a:63:ef:fb:00:53:71:bf:
                    0e:56:97:ce:ce:e1:7a:d3:47:e2:8f:60:c1:1c:4c:
                    e3:82:08:07:34:6f:dc:a8:7c:ee:5b:7c:e5:ec:b2:
                    c6:8b:47:ee:31:4c:d3:b3:1c:c4:3d:ff:42:7c:23:
                    4c:9f:7a:6a:8a:12:c5:f8:49
                Exponent: 65537 (0x10001)
        X509v3 extensions:
            X509v3 Basic Constraints: 
                CA:FALSE
            Netscape Comment: 
                OpenSSL Generated Certificate
            X509v3 Subject Key Identifier: 
                18:85:75:18:13:24:7C:B0:88:AF:CA:25:19:49:57:A0:41:1E:A2:89
            X509v3 Authority Key Identifier: 
                DirName:/C=RU/O=Yandex/OU=Passport/CN=Passport root CA
                serial:02

    Signature Algorithm: md5WithRSAEncryption
        2e:cb:aa:55:df:3d:ee:80:8a:66:f7:57:9b:00:0b:6b:aa:fd:
        3b:d5:04:9a:ba:77:0e:3f:e5:2f:1c:35:a3:82:99:a5:9a:b7:
        97:01:ea:1a:fa:76:5e:a7:b3:c4:e7:ef:8e:f7:d8:37:70:da:
        28:c1:73:7e:5e:71:60:df:42:2b:db:1b:69:8a:d7:74:6b:34:
        15:d9:9d:2f:5e:82:77:52:3c:34:46:31:a2:9f:e9:26:94:54:
        75:14:c7:2d:79:92:44:b5:47:e3:26:99:57:ac:80:5b:c9:4c:
        8b:a6:9b:ab:97:d7:de:20:cb:bc:68:cb:3f:eb:1d:30:20:2c:
        dc:cd:25:1f:f9:09:b9:29:85:2e:77:62:30:8c:15:ab:3f:1e:
        c9:bb:24:59:92:ee:f6:96:fc:dd:ce:e5:97:d5:22:66:21:ce:
        42:fc:5d:f7:94:ba:46:a2:d7:30:f7:52:e4:57:55:69:05:0a:
        4a:46:98:56:52:47:57:b3:f5:25:58:13:cb:36:39:d2:36:27:
        58:02:3f:4c:67:38:bc:cd:75:54:b7:69:54:50:66:c2:5b:01:
        38:4a:61:3a:53:1c:53:d5:34:e6:05:c3:d2:08:0a:c9:95:74:
        ca:00:68:03:3e:22:3e:60:bf:b9:66:9b:f8:64:8c:3f:b3:8d:
        ee:fa:f2:9b
-----BEGIN CERTIFICATE-----
MIIDjDCCAnSgAwIBAgICDrcwDQYJKoZIhvcNAQEEBQAwTzELMAkGA1UEBhMCUlUx
DzANBgNVBAoTBllhbmRleDERMA8GA1UECxMIUGFzc3BvcnQxHDAaBgNVBAMTE1Bh
c3Nwb3J0IElzc3VpbmcgQ0EwHhcNMTEwMjE2MTkxMTU2WhcNMTEwMzE4MTkxMTU2
WjCBiDELMAkGA1UEBhMCUlUxDzANBgNVBAgTBk1vc2NvdzEbMBkGA1UECxQSc29h
cF9kaXJlY3RfeWFuZGV4MSQwIgYDVQQDFBs1MTcwODA5NkBwYXNzcG9ydC55YW5k
ZXgucnUxJTAjBgkqhkiG9w0BCQEWFmFtLWJvcm92aWtvdkB5YW5kZXgucnUwgZ8w
DQYJKoZIhvcNAQEBBQADgY0AMIGJAoGBAK9CgScXJfmHzPajMaSP3r6DMlGxIhTT
q2kS4BONizrK0s/gL53SSauRHR8dAr1lQKQLencIsgUp/lJzk0LfBCTEb0pj7/sA
U3G/DlaXzs7hetNH4o9gwRxM44IIBzRv3Kh87lt85eyyxotH7jFM07McxD3/Qnwj
TJ96aooSxfhJAgMBAAGjgbswgbgwCQYDVR0TBAIwADAsBglghkgBhvhCAQ0EHxYd
T3BlblNTTCBHZW5lcmF0ZWQgQ2VydGlmaWNhdGUwHQYDVR0OBBYEFBiFdRgTJHyw
iK/KJRlJV6BBHqKJMF4GA1UdIwRXMFWhUKROMEwxCzAJBgNVBAYTAlJVMQ8wDQYD
VQQKEwZZYW5kZXgxETAPBgNVBAsTCFBhc3Nwb3J0MRkwFwYDVQQDExBQYXNzcG9y
dCByb290IENBggECMA0GCSqGSIb3DQEBBAUAA4IBAQAuy6pV3z3ugIpm91ebAAtr
qv071QSauncOP+UvHDWjgpmlmreXAeoa+nZep7PE5++O99g3cNoowXN+XnFg30Ir
2xtpitd0azQV2Z0vXoJ3Ujw0RjGin+kmlFR1FMcteZJEtUfjJplXrIBbyUyLppur
l9feIMu8aMs/6x0wICzczSUf+Qm5KYUud2IwjBWrPx7JuyRZku72lvzdzuWX1SJm
Ic5C/F33lLpGotcw91LkV1VpBQpKRphWUkdXs/UlWBPLNjnSNidYAj9MZzi8zXVU
t2lUUGbCWwE4SmE6UxxT1TTmBcPSCArJlXTKAGgDPiI+YL+5Zpv4ZIw/s43u+vKb
-----END CERTIFICATE-----
