Certificate:
    Data:
        Version: 3 (0x2)
        Serial Number: 3660 (0xe4c)
        Signature Algorithm: md5WithRSAEncryption
        Issuer: C=RU, O=Yandex, OU=Passport, CN=Passport Issuing CA
        Validity
            Not Before: Apr 26 16:36:38 2012 GMT
            Not After : Jul 25 16:36:38 2012 GMT
        Subject: C=RU, ST=Moscow, OU=soap_direct_yandex, CN=51708096@passport.yandex.ru/emailAddress=am-borovikov@yandex.ru
        Subject Public Key Info:
            Public Key Algorithm: rsaEncryption
            RSA Public Key: (1024 bit)
                Modulus (1024 bit):
                    00:a6:27:dc:83:09:43:4c:f6:54:ff:24:69:ea:84:
                    d3:fa:58:02:4b:57:4e:60:29:f1:39:40:8f:76:81:
                    96:62:d9:7e:a4:7f:68:1f:43:57:9d:95:34:8d:eb:
                    21:ff:4f:21:4c:26:8d:d7:19:05:60:ca:37:52:a4:
                    6a:ef:f7:72:50:c3:74:3f:b7:c2:12:64:16:fa:50:
                    b0:2d:ca:ad:8b:d1:78:28:68:26:46:2c:dc:bd:88:
                    16:a5:4b:ae:b3:7e:1c:f3:a1:81:61:ab:a8:30:1d:
                    bf:57:63:1b:83:cb:62:b4:24:35:e0:59:12:78:63:
                    8f:b1:b8:b3:36:4e:62:99:a7
                Exponent: 65537 (0x10001)
        X509v3 extensions:
            X509v3 Basic Constraints: 
                CA:FALSE
            Netscape Comment: 
                OpenSSL Generated Certificate
            X509v3 Subject Key Identifier: 
                E1:C6:CD:DD:9F:02:00:55:6D:E6:7D:B9:56:97:6C:F2:BE:31:DC:F3
            X509v3 Authority Key Identifier: 
                DirName:/C=RU/O=Yandex/OU=Passport/CN=Passport root CA
                serial:02

    Signature Algorithm: md5WithRSAEncryption
        3b:d3:e3:37:fd:49:fa:36:25:cd:9c:19:62:59:ab:b7:fa:67:
        2e:6c:9e:c7:e8:18:c2:9c:22:f0:3b:82:91:72:f3:ea:85:bd:
        b0:75:5b:c3:a7:3d:c8:b4:2e:36:1b:61:86:17:77:4d:6c:c8:
        4d:92:60:30:6d:7c:38:78:bc:e9:70:9d:c6:58:ae:ab:63:c6:
        76:80:95:20:1d:83:bc:2f:08:ac:96:f7:3b:99:19:f8:ab:9e:
        af:d4:04:f5:76:32:92:1a:28:3d:a0:45:12:89:3e:53:80:02:
        66:1b:7f:14:83:60:7b:2a:f8:8b:bd:69:bc:f5:56:05:8e:2b:
        bb:e0:64:2c:89:03:60:fb:7e:02:0a:5c:d9:34:3d:21:1e:58:
        a0:ba:30:4b:89:12:cf:7b:7f:fe:e3:59:52:2c:64:05:e0:7d:
        e0:b1:90:81:a1:0a:71:b3:ca:87:60:2a:9d:45:e5:87:1f:6a:
        03:e5:c0:04:72:41:20:c0:c6:73:c9:f2:bd:99:cb:2d:53:f1:
        5b:c0:5d:1c:02:20:52:ba:45:dd:30:91:98:0c:60:11:23:ce:
        10:be:78:14:02:d8:0e:20:d5:8e:16:17:d6:54:d9:5e:ac:59:
        fd:58:cc:20:a4:19:ca:7e:db:6b:c6:bf:3e:c8:23:fa:8e:f4:
        53:76:48:e0
-----BEGIN CERTIFICATE-----
MIIDjDCCAnSgAwIBAgICDkwwDQYJKoZIhvcNAQEEBQAwTzELMAkGA1UEBhMCUlUx
DzANBgNVBAoTBllhbmRleDERMA8GA1UECxMIUGFzc3BvcnQxHDAaBgNVBAMTE1Bh
c3Nwb3J0IElzc3VpbmcgQ0EwHhcNMTIwNDI2MTYzNjM4WhcNMTIwNzI1MTYzNjM4
WjCBiDELMAkGA1UEBhMCUlUxDzANBgNVBAgTBk1vc2NvdzEbMBkGA1UECxQSc29h
cF9kaXJlY3RfeWFuZGV4MSQwIgYDVQQDFBs1MTcwODA5NkBwYXNzcG9ydC55YW5k
ZXgucnUxJTAjBgkqhkiG9w0BCQEWFmFtLWJvcm92aWtvdkB5YW5kZXgucnUwgZ8w
DQYJKoZIhvcNAQEBBQADgY0AMIGJAoGBAKYn3IMJQ0z2VP8kaeqE0/pYAktXTmAp
8TlAj3aBlmLZfqR/aB9DV52VNI3rIf9PIUwmjdcZBWDKN1Kkau/3clDDdD+3whJk
FvpQsC3KrYvReChoJkYs3L2IFqVLrrN+HPOhgWGrqDAdv1djG4PLYrQkNeBZEnhj
j7G4szZOYpmnAgMBAAGjgbswgbgwCQYDVR0TBAIwADAsBglghkgBhvhCAQ0EHxYd
T3BlblNTTCBHZW5lcmF0ZWQgQ2VydGlmaWNhdGUwHQYDVR0OBBYEFOHGzd2fAgBV
beZ9uVaXbPK+MdzzMF4GA1UdIwRXMFWhUKROMEwxCzAJBgNVBAYTAlJVMQ8wDQYD
VQQKEwZZYW5kZXgxETAPBgNVBAsTCFBhc3Nwb3J0MRkwFwYDVQQDExBQYXNzcG9y
dCByb290IENBggECMA0GCSqGSIb3DQEBBAUAA4IBAQA70+M3/Un6NiXNnBliWau3
+mcubJ7H6BjCnCLwO4KRcvPqhb2wdVvDpz3ItC42G2GGF3dNbMhNkmAwbXw4eLzp
cJ3GWK6rY8Z2gJUgHYO8Lwislvc7mRn4q56v1AT1djKSGig9oEUSiT5TgAJmG38U
g2B7KviLvWm89VYFjiu74GQsiQNg+34CClzZND0hHligujBLiRLPe3/+41lSLGQF
4H3gsZCBoQpxs8qHYCqdReWHH2oD5cAEckEgwMZzyfK9mcstU/FbwF0cAiBSukXd
MJGYDGARI84QvngUAtgOINWOFhfWVNlerFn9WMwgpBnKfttrxr8+yCP6jvRTdkjg
-----END CERTIFICATE-----
