Certificate:
    Data:
        Version: 3 (0x2)
        Serial Number: 11971 (0x2ec3)
        Signature Algorithm: md5WithRSAEncryption
        Issuer: C=RU, O=Yandex, OU=Passport, CN=Passport Issuing CA
        Validity
            Not Before: Jan 10 05:43:56 2012 GMT
            Not After : Apr  9 05:43:56 2012 GMT
        Subject: C=RU, ST=Moscow, OU=soap_direct_yandex, CN=51708096@passport.yandex.ru/emailAddress=am-borovikov@yandex.ru
        Subject Public Key Info:
            Public Key Algorithm: rsaEncryption
            RSA Public Key: (1024 bit)
                Modulus (1024 bit):
                    00:ba:43:2f:8f:7c:8b:81:31:16:db:81:fd:83:a3:
                    78:df:3c:58:dc:86:ef:03:ea:2b:5a:d8:d4:d1:0a:
                    69:e6:43:8c:ce:1f:a2:72:65:a6:db:ba:f6:7b:d0:
                    6a:3c:64:33:6b:5a:a0:c8:a7:d6:da:eb:86:fc:52:
                    3b:65:a4:be:dd:28:00:33:c3:84:94:2c:de:cc:5e:
                    12:47:9c:be:cf:76:ae:d4:1d:1c:96:f2:b6:4a:94:
                    b0:8f:81:13:3b:fe:5e:44:7d:03:83:43:aa:3b:45:
                    89:00:b9:2f:7e:37:c4:25:6c:84:6a:6d:ea:57:ad:
                    16:8b:63:81:ee:cf:07:1c:5b
                Exponent: 65537 (0x10001)
        X509v3 extensions:
            X509v3 Basic Constraints: 
                CA:FALSE
            Netscape Comment: 
                OpenSSL Generated Certificate
            X509v3 Subject Key Identifier: 
                75:39:8C:51:98:72:78:0C:8B:CF:B5:7F:E1:4B:A6:65:AF:27:8D:D0
            X509v3 Authority Key Identifier: 
                DirName:/C=RU/O=Yandex/OU=Passport/CN=Passport root CA
                serial:02

    Signature Algorithm: md5WithRSAEncryption
        5c:65:32:21:65:26:1d:85:cb:83:db:16:fb:df:64:f9:57:97:
        fb:28:22:3f:0d:8b:93:32:c2:b1:3a:d8:fc:8d:25:72:b8:99:
        8b:e6:c7:fe:56:73:7f:11:20:ef:d3:b2:d0:64:83:18:d7:c3:
        81:bd:83:7d:6a:0c:2e:28:20:4f:31:35:2e:39:d2:95:80:8f:
        7c:ee:9e:d7:36:99:69:ec:85:c7:d9:2d:43:b0:39:a9:a3:59:
        e0:42:b2:e2:03:a3:0b:25:5d:24:d5:2f:53:2f:14:c8:ac:76:
        ab:19:a2:17:4b:c9:7c:f0:69:c0:38:df:c0:b4:7b:d8:5a:a0:
        dd:ea:2c:f9:3f:ec:28:ce:68:82:91:57:b8:50:a4:b2:05:a1:
        79:aa:5f:ab:eb:64:2b:bb:8f:45:c2:01:75:45:d1:fa:e5:af:
        a0:1a:d5:b1:41:27:d9:bd:6c:ac:3e:e4:5d:f8:1b:a7:1b:b7:
        1e:05:d1:68:94:f6:3e:9f:d7:7e:b6:ce:45:60:cd:90:3a:0a:
        65:a1:fc:fb:38:43:ff:d0:26:cd:8a:1c:f8:15:72:36:53:9d:
        bf:b3:e8:32:28:48:51:69:e4:aa:bc:be:00:7f:07:5a:1a:26:
        6f:26:88:64:a3:9a:77:f2:58:cf:01:a1:01:83:4d:e6:59:ed:
        48:c0:aa:3c
-----BEGIN CERTIFICATE-----
MIIDjDCCAnSgAwIBAgICLsMwDQYJKoZIhvcNAQEEBQAwTzELMAkGA1UEBhMCUlUx
DzANBgNVBAoTBllhbmRleDERMA8GA1UECxMIUGFzc3BvcnQxHDAaBgNVBAMTE1Bh
c3Nwb3J0IElzc3VpbmcgQ0EwHhcNMTIwMTEwMDU0MzU2WhcNMTIwNDA5MDU0MzU2
WjCBiDELMAkGA1UEBhMCUlUxDzANBgNVBAgTBk1vc2NvdzEbMBkGA1UECxQSc29h
cF9kaXJlY3RfeWFuZGV4MSQwIgYDVQQDFBs1MTcwODA5NkBwYXNzcG9ydC55YW5k
ZXgucnUxJTAjBgkqhkiG9w0BCQEWFmFtLWJvcm92aWtvdkB5YW5kZXgucnUwgZ8w
DQYJKoZIhvcNAQEBBQADgY0AMIGJAoGBALpDL498i4ExFtuB/YOjeN88WNyG7wPq
K1rY1NEKaeZDjM4fonJlptu69nvQajxkM2taoMin1trrhvxSO2Wkvt0oADPDhJQs
3sxeEkecvs92rtQdHJbytkqUsI+BEzv+XkR9A4NDqjtFiQC5L343xCVshGpt6let
Fotjge7PBxxbAgMBAAGjgbswgbgwCQYDVR0TBAIwADAsBglghkgBhvhCAQ0EHxYd
T3BlblNTTCBHZW5lcmF0ZWQgQ2VydGlmaWNhdGUwHQYDVR0OBBYEFHU5jFGYcngM
i8+1f+FLpmWvJ43QMF4GA1UdIwRXMFWhUKROMEwxCzAJBgNVBAYTAlJVMQ8wDQYD
VQQKEwZZYW5kZXgxETAPBgNVBAsTCFBhc3Nwb3J0MRkwFwYDVQQDExBQYXNzcG9y
dCByb290IENBggECMA0GCSqGSIb3DQEBBAUAA4IBAQBcZTIhZSYdhcuD2xb732T5
V5f7KCI/DYuTMsKxOtj8jSVyuJmL5sf+VnN/ESDv07LQZIMY18OBvYN9agwuKCBP
MTUuOdKVgI987p7XNplp7IXH2S1DsDmpo1ngQrLiA6MLJV0k1S9TLxTIrHarGaIX
S8l88GnAON/AtHvYWqDd6iz5P+wozmiCkVe4UKSyBaF5ql+r62Qru49FwgF1RdH6
5a+gGtWxQSfZvWysPuRd+BunG7ceBdFolPY+n9d+ts5FYM2QOgplofz7OEP/0CbN
ihz4FXI2U52/s+gyKEhRaeSqvL4AfwdaGiZvJohko5p38ljPAaEBg03mWe1IwKo8
-----END CERTIFICATE-----
