Certificate:
    Data:
        Version: 3 (0x2)
        Serial Number: 4163 (0x1043)
        Signature Algorithm: md5WithRSAEncryption
        Issuer: C=RU, O=Yandex, OU=Passport, CN=Passport Issuing CA
        Validity
            Not Before: Mar  7 09:48:58 2011 GMT
            Not After : Apr  6 09:48:58 2011 GMT
        Subject: C=RU, ST=Moscow, OU=soap_direct_yandex, CN=51708096@passport.yandex.ru/emailAddress=am-borovikov@yandex.ru
        Subject Public Key Info:
            Public Key Algorithm: rsaEncryption
            RSA Public Key: (1024 bit)
                Modulus (1024 bit):
                    00:a7:e4:73:e9:db:1e:f7:7e:d1:88:07:14:c4:16:
                    39:52:9b:9d:cf:03:de:a4:37:ce:f9:5a:7d:a1:dd:
                    12:dc:ff:ec:ab:ae:5a:09:c6:4e:a7:ce:3d:b7:5b:
                    d5:37:b8:1b:c4:e2:a0:a7:42:b9:ae:38:11:a1:63:
                    4f:75:f5:7c:08:93:ff:6b:75:1f:e7:cb:3b:13:df:
                    f8:ca:60:27:f3:12:ee:14:d8:83:4c:ec:bb:01:53:
                    84:15:05:fd:e8:42:4f:28:d5:f6:9b:d7:bd:d0:29:
                    45:24:33:73:f6:b6:32:65:2b:1e:89:5c:cc:f8:7d:
                    f4:bf:a9:54:8e:3e:3a:a7:4d
                Exponent: 65537 (0x10001)
        X509v3 extensions:
            X509v3 Basic Constraints: 
                CA:FALSE
            Netscape Comment: 
                OpenSSL Generated Certificate
            X509v3 Subject Key Identifier: 
                81:0B:56:48:F0:03:D0:AB:B9:DE:CF:2F:0F:4B:98:04:66:40:2A:D3
            X509v3 Authority Key Identifier: 
                DirName:/C=RU/O=Yandex/OU=Passport/CN=Passport root CA
                serial:02

    Signature Algorithm: md5WithRSAEncryption
        aa:b4:b0:f2:64:9f:92:16:ae:92:cf:c8:9f:7d:d8:d3:31:b6:
        ef:a5:18:2b:2f:cc:30:af:dc:6b:85:4f:db:b0:07:59:21:bc:
        b0:a5:0e:85:85:03:78:86:25:dd:8f:cc:60:42:d8:2c:e3:74:
        37:ef:b3:ed:7c:6d:70:97:13:1d:07:14:5f:29:16:f0:48:a7:
        fb:51:9d:db:dd:f7:56:3b:e4:64:4c:9f:5a:04:e7:c1:ab:89:
        cf:aa:bf:d8:03:a8:86:40:1f:45:2a:41:26:5e:2a:ca:55:62:
        df:5f:4c:43:d0:03:56:4c:b5:cb:a1:2f:04:77:0a:e8:98:cd:
        a3:32:97:31:2f:47:d3:10:bd:c5:b6:2b:95:2f:18:f1:16:fe:
        81:0d:6b:23:8b:21:ab:42:5f:51:ee:8a:1e:9e:3f:e3:35:7c:
        19:83:08:41:5f:6f:07:af:11:45:d8:c2:fd:e5:3c:de:ac:b1:
        53:7f:4f:c7:3f:e5:af:c5:e4:f1:88:21:27:f0:b9:96:3b:59:
        66:ec:f7:dd:d7:03:4e:c6:74:32:23:e5:3e:11:40:63:c9:22:
        51:52:d4:13:27:0c:ed:6e:a6:46:5b:c7:23:76:95:75:54:bd:
        0f:2d:f6:83:a0:bd:a4:00:94:b3:03:2f:c6:73:86:2f:d7:fe:
        99:28:0e:09
-----BEGIN CERTIFICATE-----
MIIDjDCCAnSgAwIBAgICEEMwDQYJKoZIhvcNAQEEBQAwTzELMAkGA1UEBhMCUlUx
DzANBgNVBAoTBllhbmRleDERMA8GA1UECxMIUGFzc3BvcnQxHDAaBgNVBAMTE1Bh
c3Nwb3J0IElzc3VpbmcgQ0EwHhcNMTEwMzA3MDk0ODU4WhcNMTEwNDA2MDk0ODU4
WjCBiDELMAkGA1UEBhMCUlUxDzANBgNVBAgTBk1vc2NvdzEbMBkGA1UECxQSc29h
cF9kaXJlY3RfeWFuZGV4MSQwIgYDVQQDFBs1MTcwODA5NkBwYXNzcG9ydC55YW5k
ZXgucnUxJTAjBgkqhkiG9w0BCQEWFmFtLWJvcm92aWtvdkB5YW5kZXgucnUwgZ8w
DQYJKoZIhvcNAQEBBQADgY0AMIGJAoGBAKfkc+nbHvd+0YgHFMQWOVKbnc8D3qQ3
zvlafaHdEtz/7KuuWgnGTqfOPbdb1Te4G8TioKdCua44EaFjT3X1fAiT/2t1H+fL
OxPf+MpgJ/MS7hTYg0zsuwFThBUF/ehCTyjV9pvXvdApRSQzc/a2MmUrHolczPh9
9L+pVI4+OqdNAgMBAAGjgbswgbgwCQYDVR0TBAIwADAsBglghkgBhvhCAQ0EHxYd
T3BlblNTTCBHZW5lcmF0ZWQgQ2VydGlmaWNhdGUwHQYDVR0OBBYEFIELVkjwA9Cr
ud7PLw9LmARmQCrTMF4GA1UdIwRXMFWhUKROMEwxCzAJBgNVBAYTAlJVMQ8wDQYD
VQQKEwZZYW5kZXgxETAPBgNVBAsTCFBhc3Nwb3J0MRkwFwYDVQQDExBQYXNzcG9y
dCByb290IENBggECMA0GCSqGSIb3DQEBBAUAA4IBAQCqtLDyZJ+SFq6Sz8iffdjT
MbbvpRgrL8wwr9xrhU/bsAdZIbywpQ6FhQN4hiXdj8xgQtgs43Q377PtfG1wlxMd
BxRfKRbwSKf7UZ3b3fdWO+RkTJ9aBOfBq4nPqr/YA6iGQB9FKkEmXirKVWLfX0xD
0ANWTLXLoS8EdwromM2jMpcxL0fTEL3FtiuVLxjxFv6BDWsjiyGrQl9R7ooenj/j
NXwZgwhBX28HrxFF2ML95TzerLFTf0/HP+WvxeTxiCEn8LmWO1lm7Pfd1wNOxnQy
I+U+EUBjySJRUtQTJwztbqZGW8cjdpV1VL0PLfaDoL2kAJSzAy/Gc4Yv1/6ZKA4J
-----END CERTIFICATE-----
