Certificate:
    Data:
        Version: 3 (0x2)
        Serial Number: 7363 (0x1cc3)
        Signature Algorithm: md5WithRSAEncryption
        Issuer: C=RU, O=Yandex, OU=Passport, CN=Passport Issuing CA
        Validity
            Not Before: Jul  7 11:24:45 2011 GMT
            Not After : Oct  5 11:24:45 2011 GMT
        Subject: C=RU, ST=Moscow, OU=soap_direct_yandex, CN=51708096@passport.yandex.ru/emailAddress=am-borovikov@yandex.ru
        Subject Public Key Info:
            Public Key Algorithm: rsaEncryption
            RSA Public Key: (1024 bit)
                Modulus (1024 bit):
                    00:b6:5b:0e:d0:7c:b7:33:57:a4:6a:de:fe:35:97:
                    0d:bb:22:c8:8e:f6:0c:c8:20:82:fa:1a:77:0a:c9:
                    b3:a7:bd:06:e0:c2:22:12:74:5d:f6:66:e2:b5:6f:
                    f1:d6:da:61:ea:54:b5:cf:2b:55:5e:7d:40:41:c1:
                    eb:6c:36:dd:a6:96:f5:33:73:99:fc:9d:0b:f9:2e:
                    f3:bf:67:6f:29:54:84:9a:74:52:c0:e6:6a:25:35:
                    02:85:3e:e6:b6:aa:64:37:be:f9:87:67:27:45:e7:
                    68:eb:f6:ce:eb:eb:08:54:54:81:06:ab:9a:ca:41:
                    59:7b:7e:e9:b3:25:50:f4:93
                Exponent: 65537 (0x10001)
        X509v3 extensions:
            X509v3 Basic Constraints: 
                CA:FALSE
            Netscape Comment: 
                OpenSSL Generated Certificate
            X509v3 Subject Key Identifier: 
                78:33:0A:0C:F1:A9:B5:D3:34:A9:B0:12:99:79:A7:B9:56:D3:BE:28
            X509v3 Authority Key Identifier: 
                DirName:/C=RU/O=Yandex/OU=Passport/CN=Passport root CA
                serial:02

    Signature Algorithm: md5WithRSAEncryption
        a0:9a:07:71:7e:54:27:e6:c7:2e:b5:b3:b6:a9:85:03:cb:b3:
        ce:3c:d7:35:2a:61:a1:1c:60:af:7f:50:24:79:67:42:41:f2:
        e4:1f:ec:8d:7d:21:e2:93:0e:8c:49:e6:bc:5e:a2:9d:72:d8:
        ac:22:0b:aa:12:d0:18:eb:a6:c8:93:cf:68:f3:dc:3c:e9:f3:
        dc:cf:81:5e:a8:a2:86:8c:df:20:5e:d4:39:fa:a9:d8:1d:29:
        65:fc:d4:72:07:c4:61:01:c1:89:7e:cd:df:6d:a7:9b:dc:f1:
        8c:97:c4:b7:12:66:5e:0b:90:a9:c6:67:2e:75:dc:7f:a2:5c:
        86:05:5c:5f:e6:1a:c8:f8:69:32:9c:fc:b0:df:05:19:9f:9e:
        19:31:b7:11:3d:13:3c:7a:3d:c6:6a:f6:cf:b5:b0:ea:4e:3b:
        52:9c:8e:3e:1e:40:9e:32:6a:5b:a1:3a:ef:c7:4d:2e:29:d4:
        32:21:19:78:d3:aa:d5:61:95:f5:70:32:e7:91:12:4b:84:fa:
        ea:34:46:6c:bb:36:3e:27:da:94:eb:66:52:d3:c9:53:f2:19:
        be:37:83:c7:44:0a:55:76:64:fe:fd:52:c6:22:42:23:2b:ce:
        7d:81:06:97:a5:b3:78:81:4d:60:94:97:39:82:96:fd:8b:36:
        1d:8c:cc:32
-----BEGIN CERTIFICATE-----
MIIDjDCCAnSgAwIBAgICHMMwDQYJKoZIhvcNAQEEBQAwTzELMAkGA1UEBhMCUlUx
DzANBgNVBAoTBllhbmRleDERMA8GA1UECxMIUGFzc3BvcnQxHDAaBgNVBAMTE1Bh
c3Nwb3J0IElzc3VpbmcgQ0EwHhcNMTEwNzA3MTEyNDQ1WhcNMTExMDA1MTEyNDQ1
WjCBiDELMAkGA1UEBhMCUlUxDzANBgNVBAgTBk1vc2NvdzEbMBkGA1UECxQSc29h
cF9kaXJlY3RfeWFuZGV4MSQwIgYDVQQDFBs1MTcwODA5NkBwYXNzcG9ydC55YW5k
ZXgucnUxJTAjBgkqhkiG9w0BCQEWFmFtLWJvcm92aWtvdkB5YW5kZXgucnUwgZ8w
DQYJKoZIhvcNAQEBBQADgY0AMIGJAoGBALZbDtB8tzNXpGre/jWXDbsiyI72DMgg
gvoadwrJs6e9BuDCIhJ0XfZm4rVv8dbaYepUtc8rVV59QEHB62w23aaW9TNzmfyd
C/ku879nbylUhJp0UsDmaiU1AoU+5raqZDe++YdnJ0XnaOv2zuvrCFRUgQarmspB
WXt+6bMlUPSTAgMBAAGjgbswgbgwCQYDVR0TBAIwADAsBglghkgBhvhCAQ0EHxYd
T3BlblNTTCBHZW5lcmF0ZWQgQ2VydGlmaWNhdGUwHQYDVR0OBBYEFHgzCgzxqbXT
NKmwEpl5p7lW074oMF4GA1UdIwRXMFWhUKROMEwxCzAJBgNVBAYTAlJVMQ8wDQYD
VQQKEwZZYW5kZXgxETAPBgNVBAsTCFBhc3Nwb3J0MRkwFwYDVQQDExBQYXNzcG9y
dCByb290IENBggECMA0GCSqGSIb3DQEBBAUAA4IBAQCgmgdxflQn5scutbO2qYUD
y7POPNc1KmGhHGCvf1AkeWdCQfLkH+yNfSHikw6MSea8XqKdctisIguqEtAY66bI
k89o89w86fPcz4FeqKKGjN8gXtQ5+qnYHSll/NRyB8RhAcGJfs3fbaeb3PGMl8S3
EmZeC5Cpxmcuddx/olyGBVxf5hrI+GkynPyw3wUZn54ZMbcRPRM8ej3GavbPtbDq
TjtSnI4+HkCeMmpboTrvx00uKdQyIRl406rVYZX1cDLnkRJLhPrqNEZsuzY+J9qU
62ZS08lT8hm+N4PHRApVdmT+/VLGIkIjK859gQaXpbN4gU1glJc5gpb9izYdjMwy
-----END CERTIFICATE-----
