Certificate:
    Data:
        Version: 3 (0x2)
        Serial Number: 3679 (0xe5f)
        Signature Algorithm: md5WithRSAEncryption
        Issuer: C=RU, O=Yandex, OU=Passport, CN=Passport Issuing CA
        Validity
            Not Before: Feb 14 08:33:30 2011 GMT
            Not After : Mar 16 08:33:30 2011 GMT
        Subject: C=RU, ST=Moscow, OU=soap_direct_yandex, CN=51708096@passport.yandex.ru/emailAddress=am-borovikov@yandex.ru
        Subject Public Key Info:
            Public Key Algorithm: rsaEncryption
            RSA Public Key: (1024 bit)
                Modulus (1024 bit):
                    00:e1:a2:d7:47:1b:9f:7e:8b:3d:e4:60:3f:93:dc:
                    30:b9:c5:3d:3a:0e:6c:69:7f:36:07:8e:93:1d:92:
                    cc:cc:9c:e0:98:97:51:a7:dd:1c:6c:60:18:8c:1d:
                    e8:3d:43:8b:19:a8:8b:06:0e:30:c5:52:f7:7e:68:
                    11:07:08:df:b6:d2:d6:74:8f:09:f4:74:3a:93:b2:
                    19:80:09:34:b2:6c:6e:b7:d5:5f:6a:73:d9:77:a1:
                    81:09:92:01:09:08:38:85:cf:58:f7:87:a6:f3:5d:
                    9c:7d:11:8f:45:29:a3:77:76:48:16:f4:3a:ee:e1:
                    dc:d5:35:69:5c:fd:40:b6:5b
                Exponent: 65537 (0x10001)
        X509v3 extensions:
            X509v3 Basic Constraints: 
                CA:FALSE
            Netscape Comment: 
                OpenSSL Generated Certificate
            X509v3 Subject Key Identifier: 
                29:6C:D4:A6:32:7A:02:76:50:55:58:12:B3:66:70:EA:B5:69:80:34
            X509v3 Authority Key Identifier: 
                DirName:/C=RU/O=Yandex/OU=Passport/CN=Passport root CA
                serial:02

    Signature Algorithm: md5WithRSAEncryption
        0c:e0:ab:2d:0c:ad:5c:76:dc:7e:e5:c5:53:b8:c6:8b:37:05:
        c0:48:9a:df:53:7b:a0:1f:d9:2e:f3:9e:3c:bd:c1:33:84:e9:
        a6:06:ec:fe:42:3a:fd:da:8a:61:39:c9:0d:d4:bb:80:5a:8f:
        4c:dd:a8:b5:02:69:59:57:3c:16:a8:4e:2a:ee:78:fb:d8:05:
        e7:27:56:3c:d3:6a:0a:59:e6:6a:81:31:82:7a:a6:4d:54:1a:
        78:53:20:6f:2c:a8:5d:7e:a9:6b:15:da:af:5f:e3:f1:d1:9c:
        55:7b:84:06:92:30:0e:ce:0d:66:e4:c6:fe:a2:18:67:82:f7:
        58:b9:e3:b2:bb:bc:03:1c:52:5d:47:1e:5e:d8:45:1b:4f:9d:
        34:6b:2b:90:84:67:4b:79:eb:56:89:ce:a8:57:96:49:18:bb:
        0b:30:bb:d4:a8:1b:fe:97:47:67:41:b2:99:27:ec:09:89:3b:
        eb:3c:fa:56:9c:f9:30:e2:a7:d3:c0:2c:f1:8e:1f:c3:92:87:
        44:ec:a8:af:24:1d:e7:54:74:55:cf:c1:d6:38:04:4d:f3:c4:
        c2:0f:78:02:c0:78:3b:72:18:e1:c8:86:1b:8e:95:e5:0f:2c:
        35:9e:00:0c:ae:6b:06:32:94:93:fb:d6:3c:9b:4f:c7:c7:7e:
        2c:25:dd:56
-----BEGIN CERTIFICATE-----
MIIDjDCCAnSgAwIBAgICDl8wDQYJKoZIhvcNAQEEBQAwTzELMAkGA1UEBhMCUlUx
DzANBgNVBAoTBllhbmRleDERMA8GA1UECxMIUGFzc3BvcnQxHDAaBgNVBAMTE1Bh
c3Nwb3J0IElzc3VpbmcgQ0EwHhcNMTEwMjE0MDgzMzMwWhcNMTEwMzE2MDgzMzMw
WjCBiDELMAkGA1UEBhMCUlUxDzANBgNVBAgTBk1vc2NvdzEbMBkGA1UECxQSc29h
cF9kaXJlY3RfeWFuZGV4MSQwIgYDVQQDFBs1MTcwODA5NkBwYXNzcG9ydC55YW5k
ZXgucnUxJTAjBgkqhkiG9w0BCQEWFmFtLWJvcm92aWtvdkB5YW5kZXgucnUwgZ8w
DQYJKoZIhvcNAQEBBQADgY0AMIGJAoGBAOGi10cbn36LPeRgP5PcMLnFPToObGl/
NgeOkx2SzMyc4JiXUafdHGxgGIwd6D1DixmoiwYOMMVS935oEQcI37bS1nSPCfR0
OpOyGYAJNLJsbrfVX2pz2XehgQmSAQkIOIXPWPeHpvNdnH0Rj0Upo3d2SBb0Ou7h
3NU1aVz9QLZbAgMBAAGjgbswgbgwCQYDVR0TBAIwADAsBglghkgBhvhCAQ0EHxYd
T3BlblNTTCBHZW5lcmF0ZWQgQ2VydGlmaWNhdGUwHQYDVR0OBBYEFCls1KYyegJ2
UFVYErNmcOq1aYA0MF4GA1UdIwRXMFWhUKROMEwxCzAJBgNVBAYTAlJVMQ8wDQYD
VQQKEwZZYW5kZXgxETAPBgNVBAsTCFBhc3Nwb3J0MRkwFwYDVQQDExBQYXNzcG9y
dCByb290IENBggECMA0GCSqGSIb3DQEBBAUAA4IBAQAM4KstDK1cdtx+5cVTuMaL
NwXASJrfU3ugH9ku8548vcEzhOmmBuz+Qjr92ophOckN1LuAWo9M3ai1AmlZVzwW
qE4q7nj72AXnJ1Y802oKWeZqgTGCeqZNVBp4UyBvLKhdfqlrFdqvX+Px0ZxVe4QG
kjAOzg1m5Mb+ohhngvdYueOyu7wDHFJdRx5e2EUbT500ayuQhGdLeetWic6oV5ZJ
GLsLMLvUqBv+l0dnQbKZJ+wJiTvrPPpWnPkw4qfTwCzxjh/DkodE7KivJB3nVHRV
z8HWOARN88TCD3gCwHg7chjhyIYbjpXlDyw1ngAMrmsGMpST+9Y8m0/Hx34sJd1W
-----END CERTIFICATE-----
