Certificate:
    Data:
        Version: 3 (0x2)
        Serial Number: 5036 (0x13ac)
        Signature Algorithm: md5WithRSAEncryption
        Issuer: C=RU, O=Yandex, OU=Passport, CN=Passport Issuing CA
        Validity
            Not Before: Apr  8 07:54:06 2011 GMT
            Not After : Jul  7 07:54:06 2011 GMT
        Subject: C=RU, ST=Moscow, OU=soap_direct_yandex, CN=51708096@passport.yandex.ru/emailAddress=am-borovikov@yandex.ru
        Subject Public Key Info:
            Public Key Algorithm: rsaEncryption
            RSA Public Key: (1024 bit)
                Modulus (1024 bit):
                    00:db:18:e9:3a:67:f1:af:23:b8:5d:82:83:e8:28:
                    61:7a:e6:69:64:8b:72:05:5e:b1:0f:75:6e:1a:d1:
                    59:77:b6:79:c2:0a:3e:b0:a4:e2:3e:62:1d:de:45:
                    bb:01:0a:fa:ab:c5:3f:38:d2:e8:4e:3c:28:21:e2:
                    40:a5:17:03:02:84:56:ac:2e:b8:9b:68:1e:ff:b0:
                    4e:37:c2:9f:89:4c:7f:0e:67:9f:e0:c8:d3:43:2f:
                    6f:8e:ac:1a:e3:60:49:b5:d6:a0:ca:98:44:64:21:
                    b8:de:03:ee:d2:70:09:bc:cf:d9:ea:45:d1:fb:60:
                    b9:99:53:a4:75:d2:64:76:bb
                Exponent: 65537 (0x10001)
        X509v3 extensions:
            X509v3 Basic Constraints: 
                CA:FALSE
            Netscape Comment: 
                OpenSSL Generated Certificate
            X509v3 Subject Key Identifier: 
                FC:51:54:7C:7B:68:B9:11:43:43:41:05:C5:55:93:C6:F0:AA:ED:A0
            X509v3 Authority Key Identifier: 
                DirName:/C=RU/O=Yandex/OU=Passport/CN=Passport root CA
                serial:02

    Signature Algorithm: md5WithRSAEncryption
        03:49:eb:11:30:2c:4a:2b:cb:34:4b:2f:b8:02:b7:11:85:65:
        b1:17:6c:fd:50:83:40:6c:c9:8b:67:ff:4d:bc:a9:2e:60:dc:
        40:b1:4c:52:0e:dd:d1:ca:99:ef:dd:96:4e:8b:94:b0:97:c0:
        7b:04:f1:0a:c9:56:06:bc:c8:53:e5:23:89:75:ed:39:7e:1f:
        cf:de:e6:b7:42:f8:30:b5:1b:b5:41:d2:84:df:00:29:18:ae:
        28:78:fe:62:a2:9d:df:50:86:32:38:a9:7a:2b:d7:56:f1:18:
        2a:4f:6b:50:40:c9:a9:aa:c6:a7:21:46:47:fb:9e:9d:fd:38:
        bf:a0:e0:a8:3c:41:7c:0d:69:2d:8d:29:8f:f9:c0:fe:eb:f6:
        f2:d4:02:7d:2b:16:a3:19:c1:f0:77:28:16:1c:11:c2:68:bd:
        5e:e3:1d:86:c7:36:a5:f3:c7:ae:86:b2:2e:c6:8f:cd:65:10:
        e1:80:79:a4:e4:47:cc:4c:9c:97:4a:64:82:e6:3b:b5:d5:16:
        24:67:e7:f6:a6:da:84:90:89:03:20:66:f8:52:0a:20:73:ab:
        8d:08:ed:f8:cd:d7:8d:ab:fb:0c:51:29:2d:32:3c:c5:91:95:
        26:4a:dd:49:cf:b6:cf:02:10:21:43:94:a7:eb:7c:29:ae:33:
        f9:31:8d:83
-----BEGIN CERTIFICATE-----
MIIDjDCCAnSgAwIBAgICE6wwDQYJKoZIhvcNAQEEBQAwTzELMAkGA1UEBhMCUlUx
DzANBgNVBAoTBllhbmRleDERMA8GA1UECxMIUGFzc3BvcnQxHDAaBgNVBAMTE1Bh
c3Nwb3J0IElzc3VpbmcgQ0EwHhcNMTEwNDA4MDc1NDA2WhcNMTEwNzA3MDc1NDA2
WjCBiDELMAkGA1UEBhMCUlUxDzANBgNVBAgTBk1vc2NvdzEbMBkGA1UECxQSc29h
cF9kaXJlY3RfeWFuZGV4MSQwIgYDVQQDFBs1MTcwODA5NkBwYXNzcG9ydC55YW5k
ZXgucnUxJTAjBgkqhkiG9w0BCQEWFmFtLWJvcm92aWtvdkB5YW5kZXgucnUwgZ8w
DQYJKoZIhvcNAQEBBQADgY0AMIGJAoGBANsY6Tpn8a8juF2Cg+goYXrmaWSLcgVe
sQ91bhrRWXe2ecIKPrCk4j5iHd5FuwEK+qvFPzjS6E48KCHiQKUXAwKEVqwuuJto
Hv+wTjfCn4lMfw5nn+DI00Mvb46sGuNgSbXWoMqYRGQhuN4D7tJwCbzP2epF0ftg
uZlTpHXSZHa7AgMBAAGjgbswgbgwCQYDVR0TBAIwADAsBglghkgBhvhCAQ0EHxYd
T3BlblNTTCBHZW5lcmF0ZWQgQ2VydGlmaWNhdGUwHQYDVR0OBBYEFPxRVHx7aLkR
Q0NBBcVVk8bwqu2gMF4GA1UdIwRXMFWhUKROMEwxCzAJBgNVBAYTAlJVMQ8wDQYD
VQQKEwZZYW5kZXgxETAPBgNVBAsTCFBhc3Nwb3J0MRkwFwYDVQQDExBQYXNzcG9y
dCByb290IENBggECMA0GCSqGSIb3DQEBBAUAA4IBAQADSesRMCxKK8s0Sy+4ArcR
hWWxF2z9UINAbMmLZ/9NvKkuYNxAsUxSDt3Rypnv3ZZOi5Swl8B7BPEKyVYGvMhT
5SOJde05fh/P3ua3QvgwtRu1QdKE3wApGK4oeP5iop3fUIYyOKl6K9dW8RgqT2tQ
QMmpqsanIUZH+56d/Ti/oOCoPEF8DWktjSmP+cD+6/by1AJ9KxajGcHwdygWHBHC
aL1e4x2Gxzal88euhrIuxo/NZRDhgHmk5EfMTJyXSmSC5ju11RYkZ+f2ptqEkIkD
IGb4Ugogc6uNCO34zdeNq/sMUSktMjzFkZUmSt1Jz7bPAhAhQ5Sn63wprjP5MY2D
-----END CERTIFICATE-----
